target datalayout = "e-m:e-p270:32:32-p271:32:32-p272:64:64-i64:64-i128:128-f80:128-n8:16:32:64-S128"
target triple = "x86_64-pc-linux-gnu"

%"struct.google::protobuf::Metadata" = type { ptr, ptr }
%class.anon = type { ptr }
%class.anon.84 = type { ptr }
%"struct.std::once_flag::_Prepare_execution" = type { i8 }
%"struct.std::once_flag" = type { i32 }
%class.anon.85 = type { i8 }

@_ZSt15__once_callable = external thread_local global ptr, align 8
@_ZSt11__once_call = external thread_local global ptr, align 8

; Function Attrs: inlinehint mustprogress nounwind uwtable
define internal noundef i32 @_ZL18__gthread_active_pv() #6 {
  ret i32 1
}

; Function Attrs: inlinehint mustprogress nounwind uwtable
define internal noundef ptr @"_ZZNSt9once_flag18_Prepare_executionC1IZSt9call_onceIZN6google8protobuf8internal17AssignDescriptorsEPFPKNS5_15DescriptorTableEvEPS_RKNS4_8MetadataEE3$_0JEEvRS_OT_DpOT0_EUlvE_EERSH_ENKUlvE_cvPFvvEEv"(ptr noundef nonnull align 1 dereferenceable(1) %0) #6 align 2 {
  %2 = alloca ptr, align 8
  store ptr %0, ptr %2, align 8, !tbaa !56
  ret ptr @"_ZZNSt9once_flag18_Prepare_executionC1IZSt9call_onceIZN6google8protobuf8internal17AssignDescriptorsEPFPKNS5_15DescriptorTableEvEPS_RKNS4_8MetadataEE3$_0JEEvRS_OT_DpOT0_EUlvE_EERSH_ENUlvE_8__invokeEv"
}

; Function Attrs: mustprogress nounwind uwtable
define linkonce_odr hidden void @_ZNSt9once_flag18_Prepare_executionD2Ev(ptr noundef nonnull align 1 dereferenceable(1) %0) unnamed_addr #10 comdat align 2 {
  %2 = alloca ptr, align 8
  store ptr %0, ptr %2, align 8, !tbaa !339
  %3 = call align 8 ptr @llvm.threadlocal.address.p0(ptr align 8 @_ZSt15__once_callable)
  store ptr null, ptr %3, align 8, !tbaa !56
  %4 = call align 8 ptr @llvm.threadlocal.address.p0(ptr align 8 @_ZSt11__once_call)
  store ptr null, ptr %4, align 8, !tbaa !56
  ret void
}

; Function Attrs: inlinehint mustprogress uwtable
define internal noundef i32 @_ZL14__gthread_oncePiPFvvE(ptr noundef %0, ptr noundef %1) #7 {
  %3 = alloca i32, align 4
  %4 = alloca ptr, align 8
  %5 = alloca ptr, align 8
  store ptr %0, ptr %4, align 8, !tbaa !10
  store ptr %1, ptr %5, align 8, !tbaa !56
  %6 = call noundef i32 @_ZL18__gthread_active_pv()
  %7 = icmp ne i32 %6, 0
  br i1 %7, label %8, label %12

8:                                                ; preds = %2
  %9 = load ptr, ptr %4, align 8, !tbaa !10
  %10 = load ptr, ptr %5, align 8, !tbaa !56
  %11 = call i32 @pthread_once(ptr noundef %9, ptr noundef %10)
  store i32 %11, ptr %3, align 4
  br label %13

12:                                               ; preds = %2
  store i32 -1, ptr %3, align 4
  br label %13

13:                                               ; preds = %12, %8
  %14 = load i32, ptr %3, align 4
  ret i32 %14
}

; Function Attrs: mustprogress nounwind uwtable
define internal void @"_ZNSt9once_flag18_Prepare_executionC2IZSt9call_onceIZN6google8protobuf8internal17AssignDescriptorsEPFPKNS5_15DescriptorTableEvEPS_RKNS4_8MetadataEE3$_0JEEvRS_OT_DpOT0_EUlvE_EERSH_"(ptr noundef nonnull align 1 dereferenceable(1) %0, ptr noundef nonnull align 8 dereferenceable(8) %1) unnamed_addr #10 align 2 {
  %3 = alloca ptr, align 8
  %4 = alloca ptr, align 8
  %5 = alloca %class.anon.85, align 1
  store ptr %0, ptr %3, align 8, !tbaa !339
  store ptr %1, ptr %4, align 8, !tbaa !56
  %6 = load ptr, ptr %4, align 8, !tbaa !56
  %7 = call align 8 ptr @llvm.threadlocal.address.p0(ptr align 8 @_ZSt15__once_callable)
  store ptr %6, ptr %7, align 8, !tbaa !56
  call void @llvm.lifetime.start.p0(i64 1, ptr %5) #3
  %8 = call noundef ptr @"_ZZNSt9once_flag18_Prepare_executionC1IZSt9call_onceIZN6google8protobuf8internal17AssignDescriptorsEPFPKNS5_15DescriptorTableEvEPS_RKNS4_8MetadataEE3$_0JEEvRS_OT_DpOT0_EUlvE_EERSH_ENKUlvE_cvPFvvEEv"(ptr noundef nonnull align 1 dereferenceable(1) %5) #3
  %9 = call align 8 ptr @llvm.threadlocal.address.p0(ptr align 8 @_ZSt11__once_call)
  store ptr %8, ptr %9, align 8, !tbaa !56
  call void @llvm.lifetime.end.p0(i64 1, ptr %5) #3
  ret void
}

; Function Attrs: mustprogress uwtable
define internal void @"_ZSt9call_onceIZN6google8protobuf8internal17AssignDescriptorsEPFPKNS2_15DescriptorTableEvEPSt9once_flagRKNS1_8MetadataEE3$_0JEEvRS8_OT_DpOT0_"(ptr noundef nonnull align 4 dereferenceable(4) %0, ptr noundef nonnull align 8 dereferenceable(8) %1) #4 personality ptr @__gxx_personality_v0 {
  %3 = alloca ptr, align 8
  %4 = alloca ptr, align 8
  %5 = alloca %class.anon.84, align 8
  %6 = alloca %"struct.std::once_flag::_Prepare_execution", align 1
  %7 = alloca i32, align 4
  %8 = alloca ptr, align 8
  %9 = alloca i32, align 4
  store ptr %0, ptr %3, align 8, !tbaa !280
  store ptr %1, ptr %4, align 8, !tbaa !56
  call void @llvm.lifetime.start.p0(i64 8, ptr %5) #3
  %10 = getelementptr inbounds nuw %class.anon.84, ptr %5, i32 0, i32 0
  %11 = load ptr, ptr %4, align 8, !tbaa !56
  store ptr %11, ptr %10, align 8, !tbaa !56
  call void @llvm.lifetime.start.p0(i64 1, ptr %6) #3
  call void @"_ZNSt9once_flag18_Prepare_executionC2IZSt9call_onceIZN6google8protobuf8internal17AssignDescriptorsEPFPKNS5_15DescriptorTableEvEPS_RKNS4_8MetadataEE3$_0JEEvRS_OT_DpOT0_EUlvE_EERSH_"(ptr noundef nonnull align 1 dereferenceable(1) %6, ptr noundef nonnull align 8 dereferenceable(8) %5)
  call void @llvm.lifetime.start.p0(i64 4, ptr %7) #3
  %12 = load ptr, ptr %3, align 8, !tbaa !280
  %13 = getelementptr inbounds nuw %"struct.std::once_flag", ptr %12, i32 0, i32 0
  %14 = invoke noundef i32 @_ZL14__gthread_oncePiPFvvE(ptr noundef %13, ptr noundef @__once_proxy)
          to label %15 unwind label %21

15:                                               ; preds = %2
  store i32 %14, ptr %7, align 4, !tbaa !14
  %16 = load i32, ptr %7, align 4, !tbaa !14
  %17 = icmp ne i32 %16, 0
  br i1 %17, label %18, label %25

18:                                               ; preds = %15
  %19 = load i32, ptr %7, align 4, !tbaa !14
  invoke void @_ZSt20__throw_system_errori(i32 noundef %19) #22
          to label %20 unwind label %21

20:                                               ; preds = %18
  unreachable

21:                                               ; preds = %18, %2
  %22 = landingpad { ptr, i32 }
          cleanup
  %23 = extractvalue { ptr, i32 } %22, 0
  store ptr %23, ptr %8, align 8
  %24 = extractvalue { ptr, i32 } %22, 1
  store i32 %24, ptr %9, align 4
  call void @llvm.lifetime.end.p0(i64 4, ptr %7) #3
  call void @_ZNSt9once_flag18_Prepare_executionD2Ev(ptr noundef nonnull align 1 dereferenceable(1) %6) #3
  call void @llvm.lifetime.end.p0(i64 1, ptr %6) #3
  call void @llvm.lifetime.end.p0(i64 8, ptr %5) #3
  br label %26

25:                                               ; preds = %15
  call void @llvm.lifetime.end.p0(i64 4, ptr %7) #3
  call void @_ZNSt9once_flag18_Prepare_executionD2Ev(ptr noundef nonnull align 1 dereferenceable(1) %6) #3
  call void @llvm.lifetime.end.p0(i64 1, ptr %6) #3
  call void @llvm.lifetime.end.p0(i64 8, ptr %5) #3
  ret void

26:                                               ; preds = %21
  %27 = load ptr, ptr %8, align 8
  %28 = load i32, ptr %9, align 4
  %29 = insertvalue { ptr, i32 } poison, ptr %27, 0
  %30 = insertvalue { ptr, i32 } %29, i32 %28, 1
  resume { ptr, i32 } %30
}

; Function Attrs: mustprogress uwtable
define hidden { ptr, ptr } @_ZN6google8protobuf8internal17AssignDescriptorsEPFPKNS1_15DescriptorTableEvEPSt9once_flagRKNS0_8MetadataE(ptr noundef %0, ptr noundef %1, ptr noundef nonnull align 8 dereferenceable(16) %2) #4 {
  %4 = alloca %"struct.google::protobuf::Metadata", align 8
  %5 = alloca ptr, align 8
  %6 = alloca ptr, align 8
  %7 = alloca ptr, align 8
  %8 = alloca %class.anon, align 8
  store ptr %0, ptr %5, align 8, !tbaa !56
  store ptr %1, ptr %6, align 8, !tbaa !280
  store ptr %2, ptr %7, align 8, !tbaa !281
  %9 = load ptr, ptr %6, align 8, !tbaa !280
  call void @llvm.lifetime.start.p0(i64 8, ptr %8) #3
  %10 = getelementptr inbounds nuw %class.anon, ptr %8, i32 0, i32 0
  %11 = load ptr, ptr %5, align 8, !tbaa !56
  store ptr %11, ptr %10, align 8, !tbaa !283
  call void @"_ZSt9call_onceIZN6google8protobuf8internal17AssignDescriptorsEPFPKNS2_15DescriptorTableEvEPSt9once_flagRKNS1_8MetadataEE3$_0JEEvRS8_OT_DpOT0_"(ptr noundef nonnull align 4 dereferenceable(4) %9, ptr noundef nonnull align 8 dereferenceable(8) %8)
  call void @llvm.lifetime.end.p0(i64 8, ptr %8) #3
  %12 = load ptr, ptr %7, align 8, !tbaa !281
  call void @llvm.memcpy.p0.p0.i64(ptr align 8 %4, ptr align 8 %12, i64 16, i1 false), !tbaa.struct !285
  %13 = load { ptr, ptr }, ptr %4, align 8
  ret { ptr, ptr } %13
}