; Function Attrs: mustprogress uwtable
define hidden { ptr, ptr } @_ZN6google8protobuf8internal17AssignDescriptorsEPFPKNS1_15DescriptorTableEvEPSt9once_flagRKNS0_8MetadataE(ptr noundef %0, ptr noundef %1, ptr noundef nonnull readonly align 8 captures(none) dereferenceable(16) %2) local_unnamed_addr #3 personality ptr @__gxx_personality_v0 {
  %4 = alloca %class.anon.84, align 8
  %5 = alloca %class.anon, align 8
  call void @llvm.lifetime.start.p0(i64 8, ptr nonnull %5) #25
  store ptr %0, ptr %5, align 8, !tbaa !239
  call void @llvm.lifetime.start.p0(i64 8, ptr nonnull %4) #25
  store ptr %5, ptr %4, align 8, !tbaa !71
  %6 = call align 8 ptr @llvm.threadlocal.address.p0(ptr align 8 @_ZSt15__once_callable)
  store ptr %4, ptr %6, align 8, !tbaa !71
  %7 = call align 8 ptr @llvm.threadlocal.address.p0(ptr align 8 @_ZSt11__once_call)
  store ptr @"_ZZNSt9once_flag18_Prepare_executionC1IZSt9call_onceIZN6google8protobuf8internal17AssignDescriptorsEPFPKNS5_15DescriptorTableEvEPS_RKNS4_8MetadataEE3$_0JEEvRS_OT_DpOT0_EUlvE_EERSH_ENUlvE_8__invokeEv", ptr %7, align 8, !tbaa !71
  %8 = invoke noundef i32 @pthread_once(ptr noundef nonnull align 4 dereferenceable(4) %1, ptr noundef nonnull @__once_proxy)
          to label %_ZL14__gthread_oncePiPFvvE.exit.i unwind label %11

_ZL14__gthread_oncePiPFvvE.exit.i:                ; preds = %3
  %.not.i = icmp eq i32 %8, 0
  br i1 %.not.i, label %"_ZSt9call_onceIZN6google8protobuf8internal17AssignDescriptorsEPFPKNS2_15DescriptorTableEvEPSt9once_flagRKNS1_8MetadataEE3$_0JEEvRS8_OT_DpOT0_.exit", label %9

9:                                                ; preds = %_ZL14__gthread_oncePiPFvvE.exit.i
  invoke void @_ZSt20__throw_system_errori(i32 noundef %8) #26
          to label %10 unwind label %11

10:                                               ; preds = %9
  unreachable

11:                                               ; preds = %9, %3
  %12 = landingpad { ptr, i32 }
          cleanup
  store ptr null, ptr %6, align 8, !tbaa !71
  store ptr null, ptr %7, align 8, !tbaa !71
  call void @llvm.lifetime.end.p0(i64 8, ptr nonnull %4) #25
  resume { ptr, i32 } %12

"_ZSt9call_onceIZN6google8protobuf8internal17AssignDescriptorsEPFPKNS2_15DescriptorTableEvEPSt9once_flagRKNS1_8MetadataEE3$_0JEEvRS8_OT_DpOT0_.exit": ; preds = %_ZL14__gthread_oncePiPFvvE.exit.i
  store ptr null, ptr %6, align 8, !tbaa !71
  store ptr null, ptr %7, align 8, !tbaa !71
  call void @llvm.lifetime.end.p0(i64 8, ptr nonnull %4) #25
  call void @llvm.lifetime.end.p0(i64 8, ptr nonnull %5) #25
  %.sroa.0.0.copyload = load ptr, ptr %2, align 8, !tbaa !241
  %.sroa.2.0..0..sroa_idx = getelementptr inbounds nuw i8, ptr %2, i64 8
  %.sroa.2.0.copyload = load ptr, ptr %.sroa.2.0..0..sroa_idx, align 8, !tbaa !242
  %.fca.0.insert = insertvalue { ptr, ptr } poison, ptr %.sroa.0.0.copyload, 0
  %.fca.1.insert = insertvalue { ptr, ptr } %.fca.0.insert, ptr %.sroa.2.0.copyload, 1
  ret { ptr, ptr } %.fca.1.insert
}